; Function Attrs: mustprogress uwtable
define hidden void @_ZNK2cv8ximgproc16GuidedFilterImpl24MulChannelsGuide_ParBodyclERKNS_5RangeE(ptr noundef nonnull readonly align 8 captures(none) dereferenceable(24) %0, ptr noundef nonnull readonly align 4 captures(none) dereferenceable(8) %1) unnamed_addr #3 align 2 {
  %3 = getelementptr inbounds nuw i8, ptr %0, i64 16
  %4 = load ptr, ptr %3, align 8, !tbaa !3
  %5 = getelementptr inbounds nuw i8, ptr %4, i64 24
  %6 = load i32, ptr %5, align 8, !tbaa !11
  %7 = add nsw i32 %6, 1
  %8 = mul nsw i32 %7, %6
  %9 = sdiv i32 %8, 2
  %10 = load i32, ptr %1, align 4, !tbaa !19
  %11 = getelementptr inbounds nuw i8, ptr %1, i64 4
  %12 = load i32, ptr %11, align 4, !tbaa !21
  %13 = icmp slt i32 %10, %12
  br i1 %13, label %.preheader.lr.ph, label %._crit_edge20

.preheader.lr.ph:                                 ; preds = %2
  %14 = icmp sgt i32 %8, 1
  %15 = getelementptr inbounds nuw i8, ptr %0, i64 8
  br i1 %14, label %.preheader.us.preheader, label %._crit_edge20

.preheader.us.preheader:                          ; preds = %.preheader.lr.ph
  %16 = sext i32 %10 to i64
  br label %.preheader.us

.preheader.us:                                    ; preds = %.preheader.us.preheader, %._crit_edge.us
  %indvars.iv = phi i64 [ %16, %.preheader.us.preheader ], [ %indvars.iv.next, %._crit_edge.us ]
  br label %17

17:                                               ; preds = %.preheader.us, %17
  %.018.us = phi i32 [ 0, %.preheader.us ], [ %69, %17 ]
  %18 = load ptr, ptr %15, align 8, !tbaa !22
  %19 = getelementptr inbounds nuw i8, ptr %18, i64 152
  %20 = load i32, ptr %19, align 8, !tbaa !23
  %21 = mul i32 %20, 12
  %22 = add nsw i32 %.018.us, -12
  %23 = add i32 %22, %21
  %24 = sext i32 %23 to i64
  %25 = getelementptr inbounds [36 x i32], ptr @_ZZN2cv8ximgproc16GuidedFilterImpl14getWalkPatternEiRiS2_E5wdata, i64 0, i64 %24
  %26 = load i32, ptr %25, align 4, !tbaa !28
  %27 = add nsw i32 %.018.us, -6
  %28 = add i32 %27, %21
  %29 = sext i32 %28 to i64
  %30 = getelementptr inbounds [36 x i32], ptr @_ZZN2cv8ximgproc16GuidedFilterImpl14getWalkPatternEiRiS2_E5wdata, i64 0, i64 %29
  %31 = load i32, ptr %30, align 4, !tbaa !28
  %32 = getelementptr inbounds nuw i8, ptr %18, i64 48
  %33 = sext i32 %26 to i64
  %34 = load ptr, ptr %32, align 8, !tbaa !29
  %35 = getelementptr inbounds nuw %"class.cv::Mat", ptr %34, i64 %33
  %36 = getelementptr inbounds nuw i8, ptr %35, i64 16
  %37 = load ptr, ptr %36, align 8, !tbaa !30
  %38 = getelementptr inbounds nuw i8, ptr %35, i64 72
  %39 = load ptr, ptr %38, align 8, !tbaa !39
  %40 = load i64, ptr %39, align 8, !tbaa !40
  %41 = mul i64 %40, %indvars.iv
  %42 = getelementptr inbounds nuw i8, ptr %37, i64 %41
  %43 = sext i32 %31 to i64
  %44 = getelementptr inbounds nuw %"class.cv::Mat", ptr %34, i64 %43
  %45 = getelementptr inbounds nuw i8, ptr %44, i64 16
  %46 = load ptr, ptr %45, align 8, !tbaa !30
  %47 = getelementptr inbounds nuw i8, ptr %44, i64 72
  %48 = load ptr, ptr %47, align 8, !tbaa !39
  %49 = load i64, ptr %48, align 8, !tbaa !40
  %50 = mul i64 %49, %indvars.iv
  %51 = getelementptr inbounds nuw i8, ptr %46, i64 %50
  %52 = load ptr, ptr %3, align 8, !tbaa !3
  %spec.select.i.us = tail call i32 @llvm.smax.i32(i32 %26, i32 %31)
  %spec.select5.i.us = tail call i32 @llvm.smin.i32(i32 %26, i32 %31)
  %53 = add nsw i32 %spec.select.i.us, 1
  %54 = mul nsw i32 %53, %spec.select.i.us
  %55 = sdiv i32 %54, 2
  %56 = add nsw i32 %55, %spec.select5.i.us
  %57 = sext i32 %56 to i64
  %58 = load ptr, ptr %52, align 8, !tbaa !29
  %59 = getelementptr inbounds nuw %"class.cv::Mat", ptr %58, i64 %57
  %60 = getelementptr inbounds nuw i8, ptr %59, i64 16
  %61 = load ptr, ptr %60, align 8, !tbaa !30
  %62 = getelementptr inbounds nuw i8, ptr %59, i64 72
  %63 = load ptr, ptr %62, align 8, !tbaa !39
  %64 = load i64, ptr %63, align 8, !tbaa !40
  %65 = mul i64 %64, %indvars.iv
  %66 = getelementptr inbounds nuw i8, ptr %61, i64 %65
  %67 = getelementptr inbounds nuw i8, ptr %18, i64 36
  %68 = load i32, ptr %67, align 4, !tbaa !42
  tail call void @_ZN2cv8ximgproc10intrinsics3mulEPfS2_S2_i(ptr noundef %66, ptr noundef %42, ptr noundef %51, i32 noundef %68)
  %69 = add nuw nsw i32 %.018.us, 1
  %exitcond.not = icmp eq i32 %69, %9
  br i1 %exitcond.not, label %._crit_edge.us, label %17, !llvm.loop !43

._crit_edge.us:                                   ; preds = %17
  %indvars.iv.next = add nsw i64 %indvars.iv, 1
  %70 = load i32, ptr %11, align 4, !tbaa !21
  %71 = sext i32 %70 to i64
  %72 = icmp slt i64 %indvars.iv.next, %71
  br i1 %72, label %.preheader.us, label %._crit_edge20, !llvm.loop !45

._crit_edge20:                                    ; preds = %._crit_edge.us, %.preheader.lr.ph, %2
  ret void
}